; Function Attrs: nofree norecurse nosync nounwind memory(readwrite, inaccessiblemem: none) uwtable
define void @Gia_ManAddDom(ptr noundef readonly captures(none) %0, ptr noundef %1, i32 noundef %2) local_unnamed_addr #0 {
  %4 = getelementptr i8, ptr %0, i64 32
  %.val32 = load ptr, ptr %4, align 8, !tbaa !3
  %5 = getelementptr i8, ptr %0, i64 488
  %.val33 = load ptr, ptr %5, align 8, !tbaa !28
  %6 = getelementptr i8, ptr %.val33, i64 8
  %.val33.val = load ptr, ptr %6, align 8, !tbaa !29
  %7 = ptrtoint ptr %1 to i64
  %8 = ptrtoint ptr %.val32 to i64
  %9 = sub i64 %7, %8
  %10 = sdiv exact i64 %9, 12
  %sext.i = shl i64 %10, 32
  %11 = ashr exact i64 %sext.i, 30
  %12 = getelementptr inbounds i8, ptr %.val33.val, i64 %11
  %13 = load i32, ptr %12, align 4, !tbaa !30
  %14 = icmp eq i32 %13, -1
  br i1 %14, label %.loopexit66, label %.outer

15:                                               ; preds = %.outer, %17
  %.0 = phi i32 [ %21, %17 ], [ %.0.ph, %.outer ]
  %16 = icmp sgt i32 %.029.ph, %.0
  br i1 %16, label %17, label %23

17:                                               ; preds = %15
  %18 = zext i32 %.0 to i64
  %sext.i50 = shl nuw i64 %18, 32
  %19 = ashr exact i64 %sext.i50, 30
  %20 = getelementptr inbounds i8, ptr %.val33.val, i64 %19
  %21 = load i32, ptr %20, align 4, !tbaa !30
  %22 = icmp eq i32 %21, %.0
  br i1 %22, label %.loopexit, label %15

23:                                               ; preds = %15
  %24 = icmp sgt i32 %.0, %.029.ph
  br i1 %24, label %25, label %.loopexit66

25:                                               ; preds = %23
  %26 = zext i32 %.029.ph to i64
  %sext.i51 = shl nuw i64 %26, 32
  %27 = ashr exact i64 %sext.i51, 30
  %28 = getelementptr inbounds i8, ptr %.val33.val, i64 %27
  %29 = load i32, ptr %28, align 4, !tbaa !30
  %30 = icmp eq i32 %29, %.029.ph
  br i1 %30, label %.loopexit, label %.outer

.outer:                                           ; preds = %3, %25
  %.029.ph = phi i32 [ %29, %25 ], [ %2, %3 ]
  %.0.ph = phi i32 [ %.0, %25 ], [ %13, %3 ]
  br label %15

.loopexit:                                        ; preds = %25, %17
  %31 = trunc i64 %10 to i32
  br label %.loopexit66

.loopexit66:                                      ; preds = %23, %3, %.loopexit
  %.sink = phi i32 [ %31, %.loopexit ], [ %2, %3 ], [ %.029.ph, %23 ]
  store i32 %.sink, ptr %12, align 4, !tbaa !30
  ret void
}